Certificate:
    Data:
        Version: 3 (0x2)
        Serial Number: 1 (0x1)
        Signature Algorithm: md5WithRSAEncryption
        Issuer: CN=stac_hh, O=CoherentPlus BHD, OU=Research and Development/emailAddress=enquiry@coherentplus.com, C=CN, ST=HuBei, L=WuHan
        Validity
            Not Before: Apr 16 04:16:29 2013 GMT
            Not After : Apr 14 04:16:29 2023 GMT
        Subject: CN=stac, ST=HuBei, C=CN/emailAddress=enquiry@coherentplus.com, O=CoherentPlus BHD, OU=Research and Development
        Subject Public Key Info:
            Public Key Algorithm: rsaEncryption
                Public-Key: (1024 bit)
                Modulus:
                    00:d2:c4:5a:d9:80:03:4c:a8:8f:1c:f7:b8:b4:39:
                    83:e1:7c:07:66:58:5e:d1:06:92:ad:19:6b:68:92:
                    f6:59:16:6c:a3:9f:59:aa:95:f0:6a:85:d1:1b:aa:
                    81:03:77:fc:55:c8:02:b8:3e:af:84:fc:ba:6b:9e:
                    7c:b5:1c:80:81:9d:05:ae:a8:45:5b:a9:b8:60:fe:
                    71:14:af:b3:8f:f0:f1:08:f9:66:9c:97:ba:6f:30:
                    78:a9:47:a7:93:cc:3f:13:db:69:db:7e:40:25:dc:
                    1c:0e:a0:56:1f:45:b9:d6:5b:4c:18:36:03:10:fc:
                    1d:e6:90:d5:61:35:a0:93:fb
                Exponent: 65537 (0x10001)
        X509v3 extensions:
            X509v3 Subject Alternative Name: 
                DNS:coherentplus.com
            X509v3 Basic Constraints: 
                CA:FALSE
            Netscape Cert Type: 
                SSL Server
    Signature Algorithm: md5WithRSAEncryption
        ba:d0:1b:e4:d7:4d:28:31:d6:78:5e:2d:82:14:b0:18:84:48:
        3b:ec:01:ac:42:79:26:b7:e7:8d:89:15:82:2e:69:06:07:95:
        ce:f8:a6:01:7c:64:a9:58:ad:dc:f2:88:4b:ce:f1:5d:4a:70:
        fc:62:04:4e:3c:71:7c:ed:4c:56:b4:b8:db:e5:76:0a:44:9c:
        98:97:69:c8:13:ad:cc:13:ae:95:fd:ad:64:d2:50:7a:fa:c4:
        f0:b8:99:f2:ef:41:e6:65:c6:ec:01:50:04:83:e4:cc:44:32:
        16:a8:d3:6e:19:1c:cc:c1:de:35:6d:3a:f5:40:b0:32:5f:17:
        43:23:df:ad:22:59:08:f5:8b:26:6b:17:23:bd:37:3f:e5:75:
        08:d6:de:f9:ed:a6:50:c4:99:8f:7b:0c:c6:ed:58:ea:36:53:
        97:ae:9d:b3:a2:4e:0a:59:d5:ef:bc:e6:d1:85:31:6f:43:ee:
        ad:3e:6c:10:7b:fb:65:2b:16:00:78:63:99:2b:e1:8f:e2:ee:
        51:35:e9:e3:50:50:d4:99:54:17:e2:a7:96:6d:0d:a2:8d:74:
        41:32:cb:03:2d:45:97:c6:a7:6c:6d:1b:4a:ff:bb:b8:ae:68:
        d3:15:32:c2:76:75:de:db:b2:d2:c3:76:9c:35:cf:1e:2b:bd:
        6c:88:bc:d1
-----BEGIN CERTIFICATE-----
MIIDbzCCAlegAwIBAgIBATANBgkqhkiG9w0BAQQFADCBpjEQMA4GA1UEAxQHc3Rh
Y19oaDEZMBcGA1UEChMQQ29oZXJlbnRQbHVzIEJIRDEhMB8GA1UECxMYUmVzZWFy
Y2ggYW5kIERldmVsb3BtZW50MScwJQYJKoZIhvcNAQkBFhhlbnF1aXJ5QGNvaGVy
ZW50cGx1cy5jb20xCzAJBgNVBAYTAkNOMQ4wDAYDVQQIEwVIdUJlaTEOMAwGA1UE
BxMFV3VIYW4wHhcNMTMwNDE2MDQxNjI5WhcNMjMwNDE0MDQxNjI5WjCBkzENMAsG
A1UEAxMEc3RhYzEOMAwGA1UECBMFSHVCZWkxCzAJBgNVBAYTAkNOMScwJQYJKoZI
hvcNAQkBFhhlbnF1aXJ5QGNvaGVyZW50cGx1cy5jb20xGTAXBgNVBAoTEENvaGVy
ZW50UGx1cyBCSEQxITAfBgNVBAsTGFJlc2VhcmNoIGFuZCBEZXZlbG9wbWVudDCB
nzANBgkqhkiG9w0BAQEFAAOBjQAwgYkCgYEA0sRa2YADTKiPHPe4tDmD4XwHZlhe
0QaSrRlraJL2WRZso59ZqpXwaoXRG6qBA3f8VcgCuD6vhPy6a558tRyAgZ0FrqhF
W6m4YP5xFK+zj/DxCPlmnJe6bzB4qUenk8w/E9tp235AJdwcDqBWH0W51ltMGDYD
EPwd5pDVYTWgk/sCAwEAAaM9MDswGwYDVR0RBBQwEoIQY29oZXJlbnRwbHVzLmNv
bTAJBgNVHRMEAjAAMBEGCWCGSAGG+EIBAQQEAwIGQDANBgkqhkiG9w0BAQQFAAOC
AQEAutAb5NdNKDHWeF4tghSwGIRIO+wBrEJ5JrfnjYkVgi5pBgeVzvimAXxkqVit
3PKIS87xXUpw/GIETjxxfO1MVrS42+V2CkScmJdpyBOtzBOulf2tZNJQevrE8LiZ
8u9B5mXG7AFQBIPkzEQyFqjTbhkczMHeNW069UCwMl8XQyPfrSJZCPWLJmsXI703
P+V1CNbe+e2mUMSZj3sMxu1Y6jZTl66ds6JOClnV77zm0YUxb0PurT5sEHv7ZSsW
AHhjmSvhj+LuUTXp41BQ1JlUF+Knlm0Noo10QTLLAy1Fl8anbG0bSv+7uK5o0xUy
wnZ13tuy0sN2nDXPHiu9bIi80Q==
-----END CERTIFICATE-----
