Certificate:
    Data:
        Version: 3 (0x2)
        Serial Number: 2 (0x2)
        Signature Algorithm: md5WithRSAEncryption
        Issuer: CN=stac_hh, O=CoherentPlus BHD, OU=Research and Development/emailAddress=enquiry@coherentplus.com, C=CN, ST=HuBei, L=WuHan
        Validity
            Not Before: Apr 16 04:16:45 2013 GMT
            Not After : Apr 14 04:16:45 2023 GMT
        Subject: CN=hammerhead, ST=HuBei, C=CN/emailAddress=enquiry@coherentplus.com, O=CoherentPlus BHD, OU=Research and Development
        Subject Public Key Info:
            Public Key Algorithm: rsaEncryption
                Public-Key: (1024 bit)
                Modulus:
                    00:e3:0a:45:ea:1f:45:85:43:c4:ca:21:46:e9:25:
                    d1:e6:c4:0a:d9:bc:42:00:7c:16:11:01:02:41:5d:
                    f2:44:65:7c:3b:a8:17:12:e8:dd:b7:e6:7d:50:8c:
                    7e:9b:64:59:c4:21:95:b5:05:27:66:73:4c:31:1d:
                    e6:9a:bd:11:68:80:c2:1d:7b:5c:0c:c6:42:68:00:
                    b8:bd:b1:8c:ad:f7:fa:25:10:d2:e7:1a:d9:30:a4:
                    8b:b6:e3:4b:e0:f5:76:18:c4:86:34:ed:87:99:54:
                    bb:6f:92:b6:81:09:de:de:d4:f4:54:04:bb:a5:66:
                    e3:f2:27:7f:9a:fa:e1:ee:f5
                Exponent: 65537 (0x10001)
        X509v3 extensions:
            X509v3 Subject Alternative Name: 
                DNS:coherentplus.com
            X509v3 Basic Constraints: 
                CA:FALSE
            Netscape Cert Type: 
                SSL Client
    Signature Algorithm: md5WithRSAEncryption
        05:44:9d:c1:41:36:13:6f:7c:97:ec:9d:f3:59:73:28:96:16:
        4c:61:fe:05:39:a4:f0:55:a0:c3:58:3d:42:2e:d4:05:38:b3:
        1f:98:d9:75:8f:7d:54:01:8e:19:f9:f0:1d:d3:cb:0a:17:35:
        bf:54:2b:98:27:fb:b7:b8:a9:09:23:09:1d:82:1d:62:1e:b2:
        5c:76:f1:78:c0:5f:73:dd:89:af:f6:58:30:a2:d0:44:d7:eb:
        e7:66:44:68:01:0c:84:c6:d8:1b:f5:81:b1:f9:4b:9d:8a:5d:
        f6:76:27:07:14:7b:50:ce:4e:2a:ec:2e:e1:a0:2c:15:35:7c:
        dd:3d:14:db:9c:f9:ef:13:2c:10:39:44:11:fc:2b:5c:82:ba:
        65:57:61:e7:38:3e:42:6f:0b:e0:e0:42:34:c9:ef:63:06:7d:
        ae:fe:f7:d4:87:e5:5f:b2:4d:75:a1:c6:4e:67:5e:ae:a3:12:
        4a:8f:ab:d7:31:87:04:0d:fc:78:e3:43:88:9d:fb:51:9f:b0:
        eb:f3:67:63:52:d5:e4:2b:a4:3d:59:8d:da:f9:8d:02:e2:cd:
        95:45:5b:64:85:7a:f1:85:f2:83:4b:79:36:89:db:b7:87:b2:
        1b:f2:cc:52:5c:fe:de:79:2b:08:4f:2d:1f:97:62:57:6d:0f:
        c7:7a:4d:20
-----BEGIN CERTIFICATE-----
MIIDdTCCAl2gAwIBAgIBAjANBgkqhkiG9w0BAQQFADCBpjEQMA4GA1UEAxQHc3Rh
Y19oaDEZMBcGA1UEChMQQ29oZXJlbnRQbHVzIEJIRDEhMB8GA1UECxMYUmVzZWFy
Y2ggYW5kIERldmVsb3BtZW50MScwJQYJKoZIhvcNAQkBFhhlbnF1aXJ5QGNvaGVy
ZW50cGx1cy5jb20xCzAJBgNVBAYTAkNOMQ4wDAYDVQQIEwVIdUJlaTEOMAwGA1UE
BxMFV3VIYW4wHhcNMTMwNDE2MDQxNjQ1WhcNMjMwNDE0MDQxNjQ1WjCBmTETMBEG
A1UEAxMKaGFtbWVyaGVhZDEOMAwGA1UECBMFSHVCZWkxCzAJBgNVBAYTAkNOMScw
JQYJKoZIhvcNAQkBFhhlbnF1aXJ5QGNvaGVyZW50cGx1cy5jb20xGTAXBgNVBAoT
EENvaGVyZW50UGx1cyBCSEQxITAfBgNVBAsTGFJlc2VhcmNoIGFuZCBEZXZlbG9w
bWVudDCBnzANBgkqhkiG9w0BAQEFAAOBjQAwgYkCgYEA4wpF6h9FhUPEyiFG6SXR
5sQK2bxCAHwWEQECQV3yRGV8O6gXEujdt+Z9UIx+m2RZxCGVtQUnZnNMMR3mmr0R
aIDCHXtcDMZCaAC4vbGMrff6JRDS5xrZMKSLtuNL4PV2GMSGNO2HmVS7b5K2gQne
3tT0VAS7pWbj8id/mvrh7vUCAwEAAaM9MDswGwYDVR0RBBQwEoIQY29oZXJlbnRw
bHVzLmNvbTAJBgNVHRMEAjAAMBEGCWCGSAGG+EIBAQQEAwIHgDANBgkqhkiG9w0B
AQQFAAOCAQEABUSdwUE2E298l+yd81lzKJYWTGH+BTmk8FWgw1g9Qi7UBTizH5jZ
dY99VAGOGfnwHdPLChc1v1QrmCf7t7ipCSMJHYIdYh6yXHbxeMBfc92Jr/ZYMKLQ
RNfr52ZEaAEMhMbYG/WBsflLnYpd9nYnBxR7UM5OKuwu4aAsFTV83T0U25z57xMs
EDlEEfwrXIK6ZVdh5zg+Qm8L4OBCNMnvYwZ9rv731IflX7JNdaHGTmderqMSSo+r
1zGHBA38eONDiJ37UZ+w6/NnY1LV5CukPVmN2vmNAuLNlUVbZIV68YXyg0t5Nonb
t4eyG/LMUlz+3nkrCE8tH5diV20Px3pNIA==
-----END CERTIFICATE-----
